target datalayout = "e-m:e-p270:32:32-p271:32:32-p272:64:64-i64:64-i128:128-f80:128-n8:16:32:64-S128"
target triple = "x86_64-pc-linux-gnu"

%struct.state = type { i32, i32, i32, i32, i8, i8, [2000 x i64], [2000 x i8], [256 x %struct.ttinfo], [512 x i8], [50 x %struct.lsinfo], i32 }
%struct.ttinfo = type { i32, i8, i32, i8, i8 }
%struct.lsinfo = type { i64, i64 }
%struct.pg_tz = type { [256 x i8], %struct.state }

; Function Attrs: nounwind uwtable
define dso_local zeroext i1 @pg_timezone_abbrev_is_known(ptr noundef %0, ptr noundef %1, ptr noundef %2, ptr noundef %3, ptr noundef %4) #0 {
  %6 = alloca i1, align 1
  %7 = alloca ptr, align 8
  %8 = alloca ptr, align 8
  %9 = alloca ptr, align 8
  %10 = alloca ptr, align 8
  %11 = alloca ptr, align 8
  %12 = alloca i8, align 1
  %13 = alloca ptr, align 8
  %14 = alloca ptr, align 8
  %15 = alloca i32, align 4
  %16 = alloca i32, align 4
  %17 = alloca i32, align 4
  %18 = alloca ptr, align 8
  store ptr %0, ptr %7, align 8
  store ptr %1, ptr %8, align 8
  store ptr %2, ptr %9, align 8
  store ptr %3, ptr %10, align 8
  store ptr %4, ptr %11, align 8
  call void @llvm.lifetime.start.p0(i64 1, ptr %12) #8
  store i8 0, ptr %12, align 1
  call void @llvm.lifetime.start.p0(i64 8, ptr %13) #8
  %19 = load ptr, ptr %11, align 8
  %20 = getelementptr inbounds nuw %struct.pg_tz, ptr %19, i32 0, i32 1
  store ptr %20, ptr %13, align 8
  call void @llvm.lifetime.start.p0(i64 8, ptr %14) #8
  call void @llvm.lifetime.start.p0(i64 4, ptr %15) #8
  %21 = load ptr, ptr %13, align 8
  %22 = getelementptr inbounds nuw %struct.state, ptr %21, i32 0, i32 9
  %23 = getelementptr inbounds [512 x i8], ptr %22, i64 0, i64 0
  store ptr %23, ptr %14, align 8
  store i32 0, ptr %15, align 4
  br label %24

24:                                               ; preds = %51, %5
  %25 = load i32, ptr %15, align 4
  %26 = load ptr, ptr %13, align 8
  %27 = getelementptr inbounds nuw %struct.state, ptr %26, i32 0, i32 3
  %28 = load i32, ptr %27, align 4
  %29 = icmp slt i32 %25, %28
  br i1 %29, label %30, label %54

30:                                               ; preds = %24
  %31 = load ptr, ptr %7, align 8
  %32 = load ptr, ptr %14, align 8
  %33 = load i32, ptr %15, align 4
  %34 = sext i32 %33 to i64
  %35 = getelementptr inbounds i8, ptr %32, i64 %34
  %36 = call i32 @strcmp(ptr noundef %31, ptr noundef %35) #11
  %37 = icmp eq i32 %36, 0
  br i1 %37, label %38, label %39

38:                                               ; preds = %30
  br label %54

39:                                               ; preds = %30
  br label %40

40:                                               ; preds = %48, %39
  %41 = load ptr, ptr %14, align 8
  %42 = load i32, ptr %15, align 4
  %43 = sext i32 %42 to i64
  %44 = getelementptr inbounds i8, ptr %41, i64 %43
  %45 = load i8, ptr %44, align 1
  %46 = sext i8 %45 to i32
  %47 = icmp ne i32 %46, 0
  br i1 %47, label %48, label %51

48:                                               ; preds = %40
  %49 = load i32, ptr %15, align 4
  %50 = add i32 %49, 1
  store i32 %50, ptr %15, align 4
  br label %40, !llvm.loop !42

51:                                               ; preds = %40
  %52 = load i32, ptr %15, align 4
  %53 = add i32 %52, 1
  store i32 %53, ptr %15, align 4
  br label %24, !llvm.loop !43

54:                                               ; preds = %38, %24
  %55 = load i32, ptr %15, align 4
  %56 = load ptr, ptr %13, align 8
  %57 = getelementptr inbounds nuw %struct.state, ptr %56, i32 0, i32 3
  %58 = load i32, ptr %57, align 4
  %59 = icmp sge i32 %55, %58
  br i1 %59, label %60, label %61

60:                                               ; preds = %54
  store i1 false, ptr %6, align 1
  store i32 1, ptr %16, align 4
  br label %128

61:                                               ; preds = %54
  call void @llvm.lifetime.start.p0(i64 4, ptr %17) #8
  store i32 0, ptr %17, align 4
  br label %62

62:                                               ; preds = %121, %61
  %63 = load i32, ptr %17, align 4
  %64 = load ptr, ptr %13, align 8
  %65 = getelementptr inbounds nuw %struct.state, ptr %64, i32 0, i32 2
  %66 = load i32, ptr %65, align 8
  %67 = icmp slt i32 %63, %66
  br i1 %67, label %69, label %68

68:                                               ; preds = %62
  store i32 6, ptr %16, align 4
  br label %124

69:                                               ; preds = %62
  call void @llvm.lifetime.start.p0(i64 8, ptr %18) #8
  %70 = load ptr, ptr %13, align 8
  %71 = getelementptr inbounds nuw %struct.state, ptr %70, i32 0, i32 8
  %72 = load i32, ptr %17, align 4
  %73 = sext i32 %72 to i64
  %74 = getelementptr inbounds [256 x %struct.ttinfo], ptr %71, i64 0, i64 %73
  store ptr %74, ptr %18, align 8
  %75 = load ptr, ptr %18, align 8
  %76 = getelementptr inbounds nuw %struct.ttinfo, ptr %75, i32 0, i32 2
  %77 = load i32, ptr %76, align 4
  %78 = load i32, ptr %15, align 4
  %79 = icmp eq i32 %77, %78
  br i1 %79, label %80, label %117

80:                                               ; preds = %69
  %81 = load i8, ptr %12, align 1, !range !4, !noundef !5
  %82 = trunc i8 %81 to i1
  br i1 %82, label %96, label %83

83:                                               ; preds = %80
  %84 = load ptr, ptr %8, align 8
  store i8 1, ptr %84, align 1
  %85 = load ptr, ptr %18, align 8
  %86 = getelementptr inbounds nuw %struct.ttinfo, ptr %85, i32 0, i32 0
  %87 = load i32, ptr %86, align 4
  %88 = sext i32 %87 to i64
  %89 = load ptr, ptr %9, align 8
  store i64 %88, ptr %89, align 8
  %90 = load ptr, ptr %18, align 8
  %91 = getelementptr inbounds nuw %struct.ttinfo, ptr %90, i32 0, i32 1
  %92 = load i8, ptr %91, align 4, !range !4, !noundef !5
  %93 = trunc i8 %92 to i1
  %94 = zext i1 %93 to i32
  %95 = load ptr, ptr %10, align 8
  store i32 %94, ptr %95, align 4
  store i8 1, ptr %12, align 1
  br label %116

96:                                               ; preds = %80
  %97 = load ptr, ptr %9, align 8
  %98 = load i64, ptr %97, align 8
  %99 = load ptr, ptr %18, align 8
  %100 = getelementptr inbounds nuw %struct.ttinfo, ptr %99, i32 0, i32 0
  %101 = load i32, ptr %100, align 4
  %102 = sext i32 %101 to i64
  %103 = icmp ne i64 %98, %102
  br i1 %103, label %113, label %104

104:                                              ; preds = %96
  %105 = load ptr, ptr %10, align 8
  %106 = load i32, ptr %105, align 4
  %107 = load ptr, ptr %18, align 8
  %108 = getelementptr inbounds nuw %struct.ttinfo, ptr %107, i32 0, i32 1
  %109 = load i8, ptr %108, align 4, !range !4, !noundef !5
  %110 = trunc i8 %109 to i1
  %111 = zext i1 %110 to i32
  %112 = icmp ne i32 %106, %111
  br i1 %112, label %113, label %115

113:                                              ; preds = %104, %96
  %114 = load ptr, ptr %8, align 8
  store i8 0, ptr %114, align 1
  store i32 6, ptr %16, align 4
  br label %118

115:                                              ; preds = %104
  br label %116

116:                                              ; preds = %115, %83
  br label %117

117:                                              ; preds = %116, %69
  store i32 0, ptr %16, align 4
  br label %118

118:                                              ; preds = %117, %113
  call void @llvm.lifetime.end.p0(i64 8, ptr %18) #8
  %119 = load i32, ptr %16, align 4
  switch i32 %119, label %124 [
    i32 0, label %120
  ]

120:                                              ; preds = %118
  br label %121

121:                                              ; preds = %120
  %122 = load i32, ptr %17, align 4
  %123 = add i32 %122, 1
  store i32 %123, ptr %17, align 4
  br label %62, !llvm.loop !44

124:                                              ; preds = %118, %68
  call void @llvm.lifetime.end.p0(i64 4, ptr %17) #8
  br label %125

125:                                              ; preds = %124
  %126 = load i8, ptr %12, align 1, !range !4, !noundef !5
  %127 = trunc i8 %126 to i1
  store i1 %127, ptr %6, align 1
  store i32 1, ptr %16, align 4
  br label %128

128:                                              ; preds = %125, %60
  call void @llvm.lifetime.end.p0(i64 4, ptr %15) #8
  call void @llvm.lifetime.end.p0(i64 8, ptr %14) #8
  call void @llvm.lifetime.end.p0(i64 8, ptr %13) #8
  call void @llvm.lifetime.end.p0(i64 1, ptr %12) #8
  %129 = load i1, ptr %6, align 1
  ret i1 %129
}