; Function Attrs: nofree nounwind memory(argmem: readwrite) uwtable
define dso_local zeroext i1 @pg_timezone_abbrev_is_known(ptr noundef readonly captures(none) %0, ptr noundef writeonly captures(none) %1, ptr noundef captures(none) %2, ptr noundef captures(none) %3, ptr noundef readonly captures(none) %4) local_unnamed_addr #11 {
  %6 = getelementptr inbounds nuw i8, ptr %4, i64 22376
  %7 = getelementptr inbounds nuw i8, ptr %4, i64 268
  %8 = load i32, ptr %7, align 4
  %9 = icmp sgt i32 %8, 0
  br i1 %9, label %.lr.ph, label %.thread

.lr.ph:                                           ; preds = %5, %22
  %.03548 = phi i32 [ %21, %22 ], [ 0, %5 ]
  %10 = sext i32 %.03548 to i64
  %11 = getelementptr inbounds i8, ptr %6, i64 %10
  %12 = tail call i32 @strcmp(ptr noundef nonnull dereferenceable(1) %0, ptr noundef nonnull dereferenceable(1) %11) #21
  %13 = icmp eq i32 %12, 0
  br i1 %13, label %.preheader, label %.preheader45

.preheader:                                       ; preds = %.lr.ph
  %14 = getelementptr inbounds nuw i8, ptr %4, i64 264
  %15 = load i32, ptr %14, align 8
  %16 = icmp sgt i32 %15, 0
  br i1 %16, label %.lr.ph51, label %.thread

.lr.ph51:                                         ; preds = %.preheader
  %17 = getelementptr inbounds nuw i8, ptr %4, i64 18280
  br label %24

.preheader45:                                     ; preds = %.lr.ph, %.preheader45
  %.1 = phi i32 [ %21, %.preheader45 ], [ %.03548, %.lr.ph ]
  %18 = sext i32 %.1 to i64
  %19 = getelementptr inbounds i8, ptr %6, i64 %18
  %20 = load i8, ptr %19, align 1
  %.not = icmp eq i8 %20, 0
  %21 = add i32 %.1, 1
  br i1 %.not, label %22, label %.preheader45, !llvm.loop !45

22:                                               ; preds = %.preheader45
  %23 = icmp slt i32 %21, %8
  br i1 %23, label %.lr.ph, label %.thread, !llvm.loop !46

24:                                               ; preds = %.lr.ph51, %48
  %25 = phi i32 [ %15, %.lr.ph51 ], [ %49, %48 ]
  %indvars.iv = phi i64 [ 0, %.lr.ph51 ], [ %indvars.iv.next, %48 ]
  %.03649 = phi i8 [ 0, %.lr.ph51 ], [ %.3.ph, %48 ]
  %26 = getelementptr inbounds nuw [256 x %struct.ttinfo], ptr %17, i64 0, i64 %indvars.iv
  %27 = getelementptr inbounds nuw i8, ptr %26, i64 8
  %28 = load i32, ptr %27, align 4
  %29 = icmp eq i32 %28, %.03548
  br i1 %29, label %30, label %48

30:                                               ; preds = %24
  %31 = trunc nuw i8 %.03649 to i1
  br i1 %31, label %38, label %32

32:                                               ; preds = %30
  store i8 1, ptr %1, align 1
  %33 = load i32, ptr %26, align 4
  %34 = sext i32 %33 to i64
  store i64 %34, ptr %2, align 8
  %35 = getelementptr inbounds nuw i8, ptr %26, i64 4
  %36 = load i8, ptr %35, align 4, !range !22, !noundef !23
  %37 = zext nneg i8 %36 to i32
  store i32 %37, ptr %3, align 4
  %.pre = load i32, ptr %14, align 8
  br label %48

38:                                               ; preds = %30
  %39 = load i64, ptr %2, align 8
  %40 = load i32, ptr %26, align 4
  %41 = sext i32 %40 to i64
  %.not39 = icmp eq i64 %39, %41
  br i1 %.not39, label %42, label %47

42:                                               ; preds = %38
  %43 = load i32, ptr %3, align 4
  %44 = getelementptr inbounds nuw i8, ptr %26, i64 4
  %45 = load i8, ptr %44, align 4, !range !22, !noundef !23
  %46 = zext nneg i8 %45 to i32
  %.not40 = icmp eq i32 %43, %46
  br i1 %.not40, label %48, label %47

47:                                               ; preds = %38, %42
  store i8 0, ptr %1, align 1
  br label %.thread

48:                                               ; preds = %32, %42, %24
  %49 = phi i32 [ %25, %24 ], [ %.pre, %32 ], [ %25, %42 ]
  %.3.ph = phi i8 [ %.03649, %24 ], [ 1, %32 ], [ 1, %42 ]
  %indvars.iv.next = add nuw nsw i64 %indvars.iv, 1
  %50 = sext i32 %49 to i64
  %51 = icmp slt i64 %indvars.iv.next, %50
  br i1 %51, label %24, label %.loopexit.loopexit, !llvm.loop !47

.loopexit.loopexit:                               ; preds = %48
  %52 = trunc nuw i8 %.3.ph to i1
  br label %.thread

.thread:                                          ; preds = %22, %47, %.preheader, %.loopexit.loopexit, %5
  %.0 = phi i1 [ false, %5 ], [ true, %47 ], [ false, %.preheader ], [ %52, %.loopexit.loopexit ], [ false, %22 ]
  ret i1 %.0
}